; ModuleID = 'source-C-CXX/25/691.c'
source_filename = "source-C-CXX/25/691.c"
target datalayout = "e-m:e-p270:32:32-p271:32:32-p272:64:64-i64:64-f80:128-n8:16:32:64-S128"
target triple = "x86_64-pc-linux-gnu"

@.str = private unnamed_addr constant [3 x i8] c"%s\00", align 1

; Function Attrs: nounwind sspstrong uwtable
define dso_local i32 @main() local_unnamed_addr #0 {
  %1 = alloca [101 x i8], align 16
  %2 = getelementptr inbounds [101 x i8], [101 x i8]* %1, i64 0, i64 0
  call void @llvm.lifetime.start.p0i8(i64 101, i8* nonnull %2) #5
  %3 = call i32 (i8*, ...) bitcast (i32 (...)* @gets to i32 (i8*, ...)*)(i8* nonnull %2) #5
  %4 = load i8, i8* %2, align 16
  %5 = icmp eq i8 %4, 0
  br i1 %5, label %39, label %6

6:                                                ; preds = %0, %36
  %7 = phi i8 [ %38, %36 ], [ %4, %0 ]
  %8 = phi i32 [ %32, %36 ], [ 0, %0 ]
  %9 = icmp eq i8 %7, 32
  br i1 %9, label %10, label %30

10:                                               ; preds = %6
  %11 = add nsw i32 %8, 1
  %12 = sext i32 %11 to i64
  %13 = getelementptr inbounds [101 x i8], [101 x i8]* %1, i64 0, i64 %12
  %14 = load i8, i8* %13, align 1, !tbaa !5
  %15 = icmp eq i8 %14, 32
  br i1 %15, label %16, label %30

16:                                               ; preds = %10
  %17 = sext i32 %8 to i64
  %18 = call i64 @strlen(i8* noundef nonnull %2) #6
  %19 = icmp ult i64 %18, %17
  br i1 %19, label %28, label %20

20:                                               ; preds = %16, %20
  %21 = phi i64 [ %22, %20 ], [ %17, %16 ]
  %22 = add nsw i64 %21, 1
  %23 = getelementptr inbounds [101 x i8], [101 x i8]* %1, i64 0, i64 %22
  %24 = load i8, i8* %23, align 1, !tbaa !5
  %25 = getelementptr inbounds [101 x i8], [101 x i8]* %1, i64 0, i64 %21
  store i8 %24, i8* %25, align 1, !tbaa !5
  %26 = call i64 @strlen(i8* noundef nonnull %2) #6
  %27 = icmp ult i64 %26, %22
  br i1 %27, label %28, label %20, !llvm.loop !8

28:                                               ; preds = %20, %16
  %29 = add nsw i32 %8, -1
  br label %30

30:                                               ; preds = %6, %28, %10
  %31 = phi i32 [ %29, %28 ], [ %8, %10 ], [ %8, %6 ]
  %32 = add nsw i32 %31, 1
  %33 = sext i32 %32 to i64
  %34 = call i64 @strlen(i8* noundef nonnull %2) #6
  %35 = icmp ugt i64 %34, %33
  br i1 %35, label %36, label %39, !llvm.loop !10

36:                                               ; preds = %30
  %37 = getelementptr inbounds [101 x i8], [101 x i8]* %1, i64 0, i64 %33
  %38 = load i8, i8* %37, align 1, !tbaa !5
  br label %6

39:                                               ; preds = %30, %0
  %40 = call i32 (i8*, ...) @printf(i8* nonnull dereferenceable(1) getelementptr inbounds ([3 x i8], [3 x i8]* @.str, i64 0, i64 0), i8* nonnull %2)
  call void @llvm.lifetime.end.p0i8(i64 101, i8* nonnull %2) #5
  ret i32 0
}

; Function Attrs: argmemonly mustprogress nofree nosync nounwind willreturn
declare void @llvm.lifetime.start.p0i8(i64 immarg, i8* nocapture) #1

declare i32 @gets(...) local_unnamed_addr #2

; Function Attrs: argmemonly mustprogress nofree nounwind readonly willreturn
declare i64 @strlen(i8* nocapture) local_unnamed_addr #3

; Function Attrs: nofree nounwind
declare noundef i32 @printf(i8* nocapture noundef readonly, ...) local_unnamed_addr #4

; Function Attrs: argmemonly mustprogress nofree nosync nounwind willreturn
declare void @llvm.lifetime.end.p0i8(i64 immarg, i8* nocapture) #1


!llvm.module.flags = !{!0, !1, !2, !3}
!llvm.ident = !{!4}

!0 = !{i32 1, !"wchar_size", i32 4}
!1 = !{i32 7, !"PIC Level", i32 2}
!2 = !{i32 7, !"PIE Level", i32 2}
!3 = !{i32 7, !"uwtable", i32 1}
!4 = !{!"clang version 13.0.0"}
!5 = !{!6, !6, i64 0}
!6 = !{!"omnipotent char", !7, i64 0}
!7 = !{!"Simple C/C++ TBAA"}
!8 = distinct !{!8, !9}
!9 = !{!"llvm.loop.mustprogress"}
!10 = distinct !{!10, !9}
